; Function Attrs: mustprogress nofree norecurse nosync nounwind willreturn memory(argmem: readwrite) uwtable
define noundef i32 @_ZN5boost6nowide6detail25console_input_buffer_base4syncEv(ptr nocapture noundef nonnull align 8 dereferenceable(8289) %0) unnamed_addr #3 align 2 personality ptr @__gxx_personality_v0 {
  %2 = getelementptr inbounds nuw i8, ptr %0, i64 8256
  store i64 0, ptr %2, align 8, !tbaa !25
  %3 = getelementptr inbounds nuw i8, ptr %0, i64 8288
  store i8 1, ptr %3, align 8, !tbaa !32
  %4 = getelementptr inbounds nuw i8, ptr %0, i64 8264
  %5 = load ptr, ptr %4, align 8, !tbaa !33
  %6 = getelementptr inbounds nuw i8, ptr %0, i64 8272
  %7 = load ptr, ptr %6, align 8, !tbaa !34
  %.not.i.i = icmp eq ptr %7, %5
  br i1 %.not.i.i, label %_ZNSt6vectorIcSaIcEE5clearEv.exit, label %8

8:                                                ; preds = %1
  store ptr %5, ptr %6, align 8, !tbaa !34
  br label %_ZNSt6vectorIcSaIcEE5clearEv.exit

_ZNSt6vectorIcSaIcEE5clearEv.exit:                ; preds = %1, %8
  %9 = getelementptr inbounds nuw i8, ptr %0, i64 8
  tail call void @llvm.memset.p0.i64(ptr noundef nonnull align 8 dereferenceable(24) %9, i8 0, i64 24, i1 false)
  ret i32 0
}